Certificate:
    Data:
        Version: 3 (0x2)
        Serial Number: 1 (0x1)
    Signature Algorithm: sha256WithRSAEncryption
        Issuer: C=FR, ST=Radius, L=Somewhere, O=Example Inc./emailAddress=admin@example.com, CN=Example Certificate Authority
        Validity
            Not Before: Jun 16 13:04:17 2016 GMT
            Not After : Aug 15 13:04:17 2016 GMT
        Subject: C=FR, ST=Radius, O=Example Inc., CN=Example Server Certificate/emailAddress=admin@example.com
        Subject Public Key Info:
            Public Key Algorithm: rsaEncryption
                Public-Key: (2048 bit)
                Modulus:
                    00:a2:a6:82:a5:3a:17:f9:63:9f:2e:77:cf:24:59:
                    58:c4:39:86:9a:37:2f:5e:f0:2d:93:30:4a:6f:c4:
                    65:58:82:0c:15:70:ae:dc:f9:9b:89:d7:b9:df:7d:
                    96:21:29:bd:b8:83:54:b7:85:cc:fc:a8:e8:b6:9d:
                    b8:ac:c4:7f:23:d1:6f:a6:fc:5c:15:0d:4c:ee:d2:
                    50:b8:f4:e6:a2:24:6e:1c:f8:cc:60:d7:85:6d:bf:
                    06:28:e7:37:d4:96:b5:73:ca:86:03:50:55:d5:bd:
                    22:06:b1:01:66:20:76:47:00:74:f6:aa:4e:73:b1:
                    44:1e:c8:59:7e:d9:df:df:a6:a0:c2:ce:09:09:bc:
                    d6:bd:b7:c0:8b:5f:52:c0:cd:83:a3:23:9e:c5:0b:
                    e5:5c:72:39:d3:fb:1b:6a:d8:47:ba:b5:12:42:2a:
                    dd:f4:99:7b:db:33:20:27:70:1a:5d:8a:d5:dd:31:
                    80:9d:fb:cf:3d:42:12:3c:f5:a0:2e:56:3e:59:da:
                    36:64:eb:a2:ef:91:ee:06:8b:e7:67:6b:c7:9d:ba:
                    8e:13:12:0a:c6:45:49:10:5b:2f:48:e6:b9:50:a7:
                    59:da:be:d2:7c:51:a6:00:77:46:14:d7:23:70:a7:
                    6e:eb:37:47:a9:b6:29:61:c4:23:7b:19:65:92:6f:
                    11:8b
                Exponent: 65537 (0x10001)
        X509v3 extensions:
            X509v3 Extended Key Usage: 
                TLS Web Server Authentication
            X509v3 CRL Distribution Points: 

                Full Name:
                  URI:http://www.example.com/example_ca.crl

    Signature Algorithm: sha256WithRSAEncryption
         24:e7:ee:9d:c9:78:9f:df:be:9b:0d:18:ee:9f:c0:69:b2:10:
         9e:8a:47:0a:50:27:c5:52:89:af:fc:d9:ed:84:45:9c:0d:3b:
         1c:60:e7:93:43:cb:b2:37:c8:9d:30:5f:01:b1:4f:5d:e0:96:
         8e:bb:92:dd:47:11:22:ea:0f:d8:98:d1:c0:6f:06:08:7d:07:
         a8:fc:52:2a:63:3b:4e:d8:88:3c:c4:f6:46:b9:49:a9:0a:95:
         51:72:8a:2b:13:1d:b4:ad:f2:8f:72:6a:18:dd:74:14:79:2b:
         33:d4:7c:89:f0:60:06:a3:09:53:92:90:0f:77:a4:a2:d3:55:
         f8:d2:96:07:a5:ce:3c:85:f7:ac:14:4b:52:db:07:8c:69:d6:
         9f:fb:24:a9:75:28:05:46:fd:6c:66:3d:39:8b:e2:b8:e9:7e:
         c9:0d:32:0c:91:99:d6:50:f6:2e:a2:80:6d:10:82:10:7d:8d:
         0b:0d:cb:65:b9:c2:9d:f1:fc:d2:f6:b4:0d:91:9c:e3:06:79:
         e3:37:90:da:99:f0:87:bc:a7:e5:91:5a:2e:5b:1c:04:93:97:
         9e:89:7f:63:6f:ae:df:b4:28:51:61:0e:b0:af:26:44:f4:f4:
         b2:9a:f4:b8:db:06:6c:4d:aa:c6:df:e4:d5:6a:5a:06:fd:52:
         a7:69:76:28
-----BEGIN CERTIFICATE-----
MIID2jCCAsKgAwIBAgIBATANBgkqhkiG9w0BAQsFADCBkzELMAkGA1UEBhMCRlIx
DzANBgNVBAgTBlJhZGl1czESMBAGA1UEBxMJU29tZXdoZXJlMRUwEwYDVQQKEwxF
eGFtcGxlIEluYy4xIDAeBgkqhkiG9w0BCQEWEWFkbWluQGV4YW1wbGUuY29tMSYw
JAYDVQQDEx1FeGFtcGxlIENlcnRpZmljYXRlIEF1dGhvcml0eTAeFw0xNjA2MTYx
MzA0MTdaFw0xNjA4MTUxMzA0MTdaMHwxCzAJBgNVBAYTAkZSMQ8wDQYDVQQIEwZS
YWRpdXMxFTATBgNVBAoTDEV4YW1wbGUgSW5jLjEjMCEGA1UEAxMaRXhhbXBsZSBT
ZXJ2ZXIgQ2VydGlmaWNhdGUxIDAeBgkqhkiG9w0BCQEWEWFkbWluQGV4YW1wbGUu
Y29tMIIBIjANBgkqhkiG9w0BAQEFAAOCAQ8AMIIBCgKCAQEAoqaCpToX+WOfLnfP
JFlYxDmGmjcvXvAtkzBKb8RlWIIMFXCu3Pmbide5332WISm9uINUt4XM/Kjotp24
rMR/I9FvpvxcFQ1M7tJQuPTmoiRuHPjMYNeFbb8GKOc31Ja1c8qGA1BV1b0iBrEB
ZiB2RwB09qpOc7FEHshZftnf36agws4JCbzWvbfAi19SwM2DoyOexQvlXHI50/sb
athHurUSQird9Jl72zMgJ3AaXYrV3TGAnfvPPUISPPWgLlY+Wdo2ZOui75HuBovn
Z2vHnbqOExIKxkVJEFsvSOa5UKdZ2r7SfFGmAHdGFNcjcKdu6zdHqbYpYcQjexll
km8RiwIDAQABo08wTTATBgNVHSUEDDAKBggrBgEFBQcDATA2BgNVHR8ELzAtMCug
KaAnhiVodHRwOi8vd3d3LmV4YW1wbGUuY29tL2V4YW1wbGVfY2EuY3JsMA0GCSqG
SIb3DQEBCwUAA4IBAQAk5+6dyXif376bDRjun8BpshCeikcKUCfFUomv/NnthEWc
DTscYOeTQ8uyN8idMF8BsU9d4JaOu5LdRxEi6g/YmNHAbwYIfQeo/FIqYztO2Ig8
xPZGuUmpCpVRcoorEx20rfKPcmoY3XQUeSsz1HyJ8GAGowlTkpAPd6Si01X40pYH
pc48hfesFEtS2weMadaf+ySpdSgFRv1sZj05i+K46X7JDTIMkZnWUPYuooBtEIIQ
fY0LDctlucKd8fzS9rQNkZzjBnnjN5DamfCHvKflkVouWxwEk5eeiX9jb67ftChR
YQ6wryZE9PSymvS42wZsTarG3+TValoG/VKnaXYo
-----END CERTIFICATE-----
